ccopy_reg
_reconstructor
p0
(c__main__
Characters
p1
c__builtin__
object
p2
Ntp3
Rp4
(dp5
S'dex'
p6
I17
sS'name'
p7
S'Derp'
p8
sS'weight'
p9
I10
sS'int'
p10
I10
sS'gender'
p11
S'Male'
p12
sS'age'
p13
I10
sS'height'
p14
I10
sS'char'
p15
I14
sS'race'
p16
S'Derp'
p17
sS'wis'
p18
I15
sS'str'
p19
I8
sS'exp'
p20
I0
sS'deity'
p21
S'Derp'
p22
sS'char_class'
p23
S'Derp'
p24
sS'alignment'
p25
S'Derp'
p26
sS'con'
p27
I10
sb.