ccopy_reg
_reconstructor
p0
(c__main__
Characters
p1
c__builtin__
object
p2
Ntp3
Rp4
(dp5
S'dex'
p6
I14
sS'name'
p7
S'Hagen'
p8
sS'weight'
p9
I90
sS'int'
p10
I14
sS'gender'
p11
S'Male'
p12
sS'age'
p13
I19
sS'height'
p14
I192
sS'char'
p15
I12
sS'race'
p16
S'Elf'
p17
sS'wis'
p18
I8
sS'str'
p19
I14
sS'exp'
p20
I0
sS'deity'
p21
S'Allah'
p22
sS'char_class'
p23
S'Cleric'
p24
sS'alignment'
p25
S'Good'
p26
sS'con'
p27
I14
sb.